BL51 BANKED LINKER/LOCATER V6.22                                                        04/23/2019  15:43:29  PAGE 1


BL51 BANKED LINKER/LOCATER V6.22, INVOKED BY:
D:\KEIL\C51\BIN\BL51.EXE STARTUP.obj, key_test.obj TO key_test


MEMORY MODEL: SMALL


INPUT MODULES INCLUDED:
  STARTUP.obj (?C_STARTUP)
  key_test.obj (KEY_TEST)


LINK MAP OF MODULE:  key_test (?C_STARTUP)


            TYPE    BASE      LENGTH    RELOCATION   SEGMENT NAME
            -----------------------------------------------------

            * * * * * * *   D A T A   M E M O R Y   * * * * * * *
            REG     0000H     0008H     ABSOLUTE     "REG BANK 0"
            IDATA   0008H     0001H     UNIT         ?STACK

            * * * * * * *   C O D E   M E M O R Y   * * * * * * *
            CODE    0000H     0003H     ABSOLUTE     
            CODE    0003H     0026H     UNIT         ?PR?MAIN?KEY_TEST
            CODE    0029H     0010H     UNIT         ?PR?INIT?KEY_TEST
            CODE    0039H     000CH     UNIT         ?C_C51STARTUP



OVERLAY MAP OF MODULE:   key_test (?C_STARTUP)


SEGMENT
  +--> CALLED SEGMENT
---------------------
?C_C51STARTUP
  +--> ?PR?MAIN?KEY_TEST

?PR?MAIN?KEY_TEST
  +--> ?PR?INIT?KEY_TEST



SYMBOL TABLE OF MODULE:  key_test (?C_STARTUP)

  VALUE           TYPE          NAME
  ----------------------------------

  -------         MODULE        ?C_STARTUP
  C:0039H         SEGMENT       ?C_C51STARTUP
  I:0008H         SEGMENT       ?STACK
  C:0000H         PUBLIC        ?C_STARTUP
  D:00E0H         SYMBOL        ACC
  D:00F0H         SYMBOL        B
  D:0083H         SYMBOL        DPH
  D:0082H         SYMBOL        DPL
  N:0000H         SYMBOL        IBPSTACK
BL51 BANKED LINKER/LOCATER V6.22                                                      04/23/2019  15:43:29  PAGE 2


  N:0100H         SYMBOL        IBPSTACKTOP
  N:0080H         SYMBOL        IDATALEN
  C:003CH         SYMBOL        IDATALOOP
  N:0000H         SYMBOL        PBPSTACK
  N:0100H         SYMBOL        PBPSTACKTOP
  N:0000H         SYMBOL        PDATALEN
  N:0000H         SYMBOL        PDATASTART
  N:0000H         SYMBOL        PPAGE
  N:0000H         SYMBOL        PPAGEENABLE
  D:00A0H         SYMBOL        PPAGE_SFR
  D:0081H         SYMBOL        SP
  C:0039H         SYMBOL        STARTUP1
  N:0000H         SYMBOL        XBPSTACK
  N:0000H         SYMBOL        XBPSTACKTOP
  N:0000H         SYMBOL        XDATALEN
  N:0000H         SYMBOL        XDATASTART
  C:0000H         LINE#         126
  C:0039H         LINE#         133
  C:003BH         LINE#         134
  C:003CH         LINE#         135
  C:003DH         LINE#         136
  C:003FH         LINE#         185
  C:0042H         LINE#         196
  -------         ENDMOD        ?C_STARTUP

  -------         MODULE        KEY_TEST
  C:0000H         SYMBOL        _ICE_DUMMY_
  D:0093H         PUBLIC        P0M1
  D:0096H         PUBLIC        P2M0
  D:0080H         PUBLIC        P0
  D:0095H         PUBLIC        P2M1
  D:0090H         PUBLIC        P1
  D:00A0H         PUBLIC        P2
  D:00B0H         PUBLIC        P3
  D:00C0H         PUBLIC        P4
  D:00C8H         PUBLIC        P5
  D:00E8H         PUBLIC        P6
  D:00F8H         PUBLIC        P7
  B:00A0H.3       PUBLIC        sbtLedSel
  D:00A8H         PUBLIC        IE
  C:0029H         PUBLIC        Init
  D:00B8H         PUBLIC        IP
  D:00D8H         PUBLIC        CCON
  C:0003H         PUBLIC        main
  B:00B0H.2       PUBLIC        sbtKey1
  B:00B0H.3       PUBLIC        sbtKey2
  B:0090H.7       PUBLIC        sbtKey3
  D:0098H         PUBLIC        SCON
  D:0088H         PUBLIC        TCON
  D:00D0H         PUBLIC        PSW
  D:0094H         PUBLIC        P0M0
  -------         PROC          INIT
  C:0029H         LINE#         14
  C:0029H         LINE#         15
  C:0029H         LINE#         17
  C:002CH         LINE#         18
  C:002FH         LINE#         19
BL51 BANKED LINKER/LOCATER V6.22                                                      04/23/2019  15:43:29  PAGE 3


  C:0032H         LINE#         20
  C:0034H         LINE#         21
  C:0036H         LINE#         22
  C:0038H         LINE#         23
  -------         ENDPROC       INIT
  -------         PROC          MAIN
  C:0003H         LINE#         26
  C:0003H         LINE#         27
  C:0003H         LINE#         28
  C:0006H         LINE#         29
  C:0006H         LINE#         30
  C:0006H         LINE#         31
  C:0009H         LINE#         32
  C:000EH         LINE#         34
  C:0011H         LINE#         36
  C:0014H         LINE#         37
  C:0019H         LINE#         39
  C:001CH         LINE#         41
  C:001FH         LINE#         42
  C:0024H         LINE#         44
  C:0027H         LINE#         45
  -------         ENDPROC       MAIN
  -------         ENDMOD        KEY_TEST

Program Size: data=9.0 xdata=0 code=69
LINK/LOCATE RUN COMPLETE.  0 WARNING(S),  0 ERROR(S)
